target datalayout = "e-m:e-p270:32:32-p271:32:32-p272:64:64-i64:64-i128:128-f80:128-n8:16:32:64-S128"
target triple = "x86_64-pc-linux-gnu"

%"class.llvm::APInt" = type <{ %union.anon, i32, [4 x i8] }>
%union.anon = type { i64 }

; Function Attrs: mustprogress nounwind uwtable
define linkonce_odr noundef nonnull align 4 dereferenceable(4) ptr @_ZSt3minIjERKT_S2_S2_(ptr noundef nonnull align 4 dereferenceable(4) %0, ptr noundef nonnull align 4 dereferenceable(4) %1) #0 comdat {
  %3 = alloca ptr, align 8
  %4 = alloca ptr, align 8
  %5 = alloca ptr, align 8
  store ptr %0, ptr %4, align 8
  store ptr %1, ptr %5, align 8
  %6 = load ptr, ptr %5, align 8
  %7 = load i32, ptr %6, align 4
  %8 = load ptr, ptr %4, align 8
  %9 = load i32, ptr %8, align 4
  %10 = icmp ult i32 %7, %9
  br i1 %10, label %11, label %13

11:                                               ; preds = %2
  %12 = load ptr, ptr %5, align 8
  store ptr %12, ptr %3, align 8
  br label %15

13:                                               ; preds = %2
  %14 = load ptr, ptr %4, align 8
  store ptr %14, ptr %3, align 8
  br label %15

15:                                               ; preds = %13, %11
  %16 = load ptr, ptr %3, align 8
  ret ptr %16
}

; Function Attrs: mustprogress nounwind uwtable
define linkonce_odr hidden noundef i32 @_ZN4llvm5APInt11getNumWordsEj(i32 noundef %0) #0 comdat align 2 {
  %2 = alloca i32, align 4
  store i32 %0, ptr %2, align 4
  %3 = load i32, ptr %2, align 4
  %4 = zext i32 %3 to i64
  %5 = add i64 %4, 64
  %6 = sub i64 %5, 1
  %7 = udiv i64 %6, 64
  %8 = trunc i64 %7 to i32
  ret i32 %8
}

; Function Attrs: mustprogress nounwind uwtable
define dso_local void @_ZN4llvm5APInt12tcShiftRightEPmjj(ptr noundef %0, i32 noundef %1, i32 noundef %2) #0 align 2 {
  %4 = alloca ptr, align 8
  %5 = alloca i32, align 4
  %6 = alloca i32, align 4
  %7 = alloca i32, align 4
  %8 = alloca i32, align 4
  %9 = alloca i32, align 4
  %10 = alloca i32, align 4
  %11 = alloca i32, align 4
  store ptr %0, ptr %4, align 8
  store i32 %1, ptr %5, align 4
  store i32 %2, ptr %6, align 4
  %12 = load i32, ptr %6, align 4
  %13 = icmp ne i32 %12, 0
  br i1 %13, label %15, label %14

14:                                               ; preds = %3
  br label %92

15:                                               ; preds = %3
  %16 = load i32, ptr %6, align 4
  %17 = udiv i32 %16, 64
  store i32 %17, ptr %8, align 4
  %18 = call noundef nonnull align 4 dereferenceable(4) ptr @_ZSt3minIjERKT_S2_S2_(ptr noundef nonnull align 4 dereferenceable(4) %8, ptr noundef nonnull align 4 dereferenceable(4) %5)
  %19 = load i32, ptr %18, align 4
  store i32 %19, ptr %7, align 4
  %20 = load i32, ptr %6, align 4
  %21 = urem i32 %20, 64
  store i32 %21, ptr %9, align 4
  %22 = load i32, ptr %5, align 4
  %23 = load i32, ptr %7, align 4
  %24 = sub i32 %22, %23
  store i32 %24, ptr %10, align 4
  %25 = load i32, ptr %9, align 4
  %26 = icmp eq i32 %25, 0
  br i1 %26, label %27, label %36

27:                                               ; preds = %15
  %28 = load ptr, ptr %4, align 8
  %29 = load ptr, ptr %4, align 8
  %30 = load i32, ptr %7, align 4
  %31 = zext i32 %30 to i64
  %32 = getelementptr inbounds i64, ptr %29, i64 %31
  %33 = load i32, ptr %10, align 4
  %34 = mul i32 %33, 8
  %35 = zext i32 %34 to i64
  call void @llvm.memmove.p0.p0.i64(ptr align 8 %28, ptr align 8 %32, i64 %35, i1 false)
  br label %84

36:                                               ; preds = %15
  store i32 0, ptr %11, align 4
  br label %37

37:                                               ; preds = %80, %36
  %38 = load i32, ptr %11, align 4
  %39 = load i32, ptr %10, align 4
  %40 = icmp ne i32 %38, %39
  br i1 %40, label %41, label %83

41:                                               ; preds = %37
  %42 = load ptr, ptr %4, align 8
  %43 = load i32, ptr %11, align 4
  %44 = load i32, ptr %7, align 4
  %45 = add i32 %43, %44
  %46 = zext i32 %45 to i64
  %47 = getelementptr inbounds i64, ptr %42, i64 %46
  %48 = load i64, ptr %47, align 8
  %49 = load i32, ptr %9, align 4
  %50 = zext i32 %49 to i64
  %51 = lshr i64 %48, %50
  %52 = load ptr, ptr %4, align 8
  %53 = load i32, ptr %11, align 4
  %54 = zext i32 %53 to i64
  %55 = getelementptr inbounds i64, ptr %52, i64 %54
  store i64 %51, ptr %55, align 8
  %56 = load i32, ptr %11, align 4
  %57 = add i32 %56, 1
  %58 = load i32, ptr %10, align 4
  %59 = icmp ne i32 %57, %58
  br i1 %59, label %60, label %79

60:                                               ; preds = %41
  %61 = load ptr, ptr %4, align 8
  %62 = load i32, ptr %11, align 4
  %63 = load i32, ptr %7, align 4
  %64 = add i32 %62, %63
  %65 = add i32 %64, 1
  %66 = zext i32 %65 to i64
  %67 = getelementptr inbounds i64, ptr %61, i64 %66
  %68 = load i64, ptr %67, align 8
  %69 = load i32, ptr %9, align 4
  %70 = sub i32 64, %69
  %71 = zext i32 %70 to i64
  %72 = shl i64 %68, %71
  %73 = load ptr, ptr %4, align 8
  %74 = load i32, ptr %11, align 4
  %75 = zext i32 %74 to i64
  %76 = getelementptr inbounds i64, ptr %73, i64 %75
  %77 = load i64, ptr %76, align 8
  %78 = or i64 %77, %72
  store i64 %78, ptr %76, align 8
  br label %79

79:                                               ; preds = %60, %41
  br label %80

80:                                               ; preds = %79
  %81 = load i32, ptr %11, align 4
  %82 = add i32 %81, 1
  store i32 %82, ptr %11, align 4
  br label %37, !llvm.loop !36

83:                                               ; preds = %37
  br label %84

84:                                               ; preds = %83, %27
  %85 = load ptr, ptr %4, align 8
  %86 = load i32, ptr %10, align 4
  %87 = zext i32 %86 to i64
  %88 = getelementptr inbounds i64, ptr %85, i64 %87
  %89 = load i32, ptr %7, align 4
  %90 = mul i32 %89, 8
  %91 = zext i32 %90 to i64
  call void @llvm.memset.p0.i64(ptr align 8 %88, i8 0, i64 %91, i1 false)
  br label %92

92:                                               ; preds = %84, %14
  ret void
}

; Function Attrs: mustprogress nounwind uwtable
define linkonce_odr hidden noundef i32 @_ZNK4llvm5APInt11getNumWordsEv(ptr noundef nonnull align 8 dereferenceable(12) %0) #0 comdat align 2 {
  %2 = alloca ptr, align 8
  store ptr %0, ptr %2, align 8
  %3 = load ptr, ptr %2, align 8
  %4 = getelementptr inbounds nuw %"class.llvm::APInt", ptr %3, i32 0, i32 1
  %5 = load i32, ptr %4, align 8
  %6 = call noundef i32 @_ZN4llvm5APInt11getNumWordsEj(i32 noundef %5)
  ret i32 %6
}

; Function Attrs: mustprogress nounwind uwtable
define dso_local void @_ZN4llvm5APInt12lshrSlowCaseEj(ptr noundef nonnull align 8 dereferenceable(12) %0, i32 noundef %1) #0 align 2 {
  %3 = alloca ptr, align 8
  %4 = alloca i32, align 4
  store ptr %0, ptr %3, align 8
  store i32 %1, ptr %4, align 4
  %5 = load ptr, ptr %3, align 8
  %6 = getelementptr inbounds nuw %"class.llvm::APInt", ptr %5, i32 0, i32 0
  %7 = load ptr, ptr %6, align 8
  %8 = call noundef i32 @_ZNK4llvm5APInt11getNumWordsEv(ptr noundef nonnull align 8 dereferenceable(12) %5)
  %9 = load i32, ptr %4, align 4
  call void @_ZN4llvm5APInt12tcShiftRightEPmjj(ptr noundef %7, i32 noundef %8, i32 noundef %9)
  ret void
}