; Function Attrs: mustprogress nofree norecurse nosync nounwind memory(readwrite, inaccessiblemem: none) uwtable
define dso_local void @_ZN4llvm5APInt12lshrSlowCaseEj(ptr noundef nonnull readonly align 8 captures(none) dereferenceable(12) %0, i32 noundef %1) local_unnamed_addr #4 align 2 {
  %3 = load ptr, ptr %0, align 8
  %4 = getelementptr inbounds nuw i8, ptr %0, i64 8
  %5 = load i32, ptr %4, align 8
  %6 = zext i32 %5 to i64
  %7 = add nuw nsw i64 %6, 63
  %8 = lshr i64 %7, 6
  %9 = trunc nuw nsw i64 %8 to i32
  %.not.i = icmp eq i32 %1, 0
  br i1 %.not.i, label %_ZN4llvm5APInt12tcShiftRightEPmjj.exit, label %10

10:                                               ; preds = %2
  %11 = lshr i32 %1, 6
  %.sroa.speculated.i = tail call i32 @llvm.umin.i32(i32 %9, i32 %11)
  %12 = and i32 %1, 63
  %13 = sub nsw i32 %9, %.sroa.speculated.i
  %14 = icmp eq i32 %12, 0
  br i1 %14, label %23, label %.preheader.i

.preheader.i:                                     ; preds = %10
  %invariant.op.i = add nuw nsw i32 %.sroa.speculated.i, 1
  %.not3137.not.i = icmp samesign ult i32 %11, %9
  br i1 %.not3137.not.i, label %.lr.ph.i, label %.loopexit.i

.lr.ph.i:                                         ; preds = %.preheader.i
  %15 = zext nneg i32 %12 to i64
  %16 = sub nuw nsw i32 64, %12
  %17 = zext nneg i32 %16 to i64
  %18 = zext i32 %13 to i64
  %19 = zext nneg i32 %.sroa.speculated.i to i64
  %20 = getelementptr inbounds nuw i64, ptr %3, i64 %19
  %21 = load i64, ptr %20, align 8
  %22 = lshr i64 %21, %15
  store i64 %22, ptr %3, align 8
  %.not32.i1 = icmp eq i32 %13, 1
  br i1 %.not32.i1, label %.loopexit.i, label %.lr.ph

23:                                               ; preds = %10
  %24 = zext nneg i32 %.sroa.speculated.i to i64
  %25 = getelementptr inbounds nuw i64, ptr %3, i64 %24
  %26 = shl nsw i32 %13, 3
  %27 = zext i32 %26 to i64
  tail call void @llvm.memmove.p0.p0.i64(ptr align 8 %3, ptr align 8 %25, i64 %27, i1 false)
  br label %.loopexit.i

.lr.ph:                                           ; preds = %.lr.ph.i, %.lr.ph
  %indvars.iv.next.i2 = phi i64 [ %indvars.iv.next.i, %.lr.ph ], [ 1, %.lr.ph.i ]
  %28 = phi ptr [ %42, %.lr.ph ], [ %3, %.lr.ph.i ]
  %29 = phi i64 [ %41, %.lr.ph ], [ %22, %.lr.ph.i ]
  %30 = phi i32 [ %36, %.lr.ph ], [ 0, %.lr.ph.i ]
  %.reass.i = add i32 %invariant.op.i, %30
  %31 = zext i32 %.reass.i to i64
  %32 = getelementptr inbounds nuw i64, ptr %3, i64 %31
  %33 = load i64, ptr %32, align 8
  %34 = shl i64 %33, %17
  %35 = or i64 %34, %29
  store i64 %35, ptr %28, align 8
  %36 = trunc nuw i64 %indvars.iv.next.i2 to i32
  %37 = add i32 %.sroa.speculated.i, %36
  %38 = zext i32 %37 to i64
  %39 = getelementptr inbounds nuw i64, ptr %3, i64 %38
  %40 = load i64, ptr %39, align 8
  %41 = lshr i64 %40, %15
  %42 = getelementptr inbounds nuw i64, ptr %3, i64 %indvars.iv.next.i2
  store i64 %41, ptr %42, align 8
  %indvars.iv.next.i = add nuw nsw i64 %indvars.iv.next.i2, 1
  %.not32.i = icmp eq i64 %indvars.iv.next.i, %18
  br i1 %.not32.i, label %.loopexit.i, label %.lr.ph

.loopexit.i:                                      ; preds = %.lr.ph, %.lr.ph.i, %23, %.preheader.i
  %43 = zext i32 %13 to i64
  %44 = getelementptr inbounds nuw i64, ptr %3, i64 %43
  %45 = shl nuw nsw i32 %.sroa.speculated.i, 3
  %46 = zext nneg i32 %45 to i64
  tail call void @llvm.memset.p0.i64(ptr align 8 %44, i8 0, i64 %46, i1 false)
  br label %_ZN4llvm5APInt12tcShiftRightEPmjj.exit

_ZN4llvm5APInt12tcShiftRightEPmjj.exit:           ; preds = %2, %.loopexit.i
  ret void
}